target datalayout = "e-m:e-p270:32:32-p271:32:32-p272:64:64-i64:64-i128:128-f80:128-n8:16:32:64-S128"
target triple = "x86_64-pc-linux-gnu"

%struct.EVP_AES_KEY = type { %union.anon, ptr, %union.anon.0 }
%union.anon = type { double, [240 x i8] }
%union.anon.0 = type { ptr }

@.str = private unnamed_addr constant [30 x i8] c"../openssl/crypto/evp/e_aes.c\00", align 1
@__func__.aesni_init_key = private unnamed_addr constant [15 x i8] c"aesni_init_key\00", align 1

; Function Attrs: nounwind uwtable
define internal i32 @aesni_init_key(ptr noundef %0, ptr noundef %1, ptr noundef %2, i32 noundef %3) #0 {
  %5 = alloca i32, align 4
  %6 = alloca ptr, align 8
  %7 = alloca ptr, align 8
  %8 = alloca ptr, align 8
  %9 = alloca i32, align 4
  %10 = alloca i32, align 4
  %11 = alloca i32, align 4
  %12 = alloca ptr, align 8
  %13 = alloca i32, align 4
  %14 = alloca i32, align 4
  store ptr %0, ptr %6, align 8, !tbaa !7
  store ptr %1, ptr %7, align 8, !tbaa !10
  store ptr %2, ptr %8, align 8, !tbaa !10
  store i32 %3, ptr %9, align 4, !tbaa !3
  call void @llvm.lifetime.start.p0(i64 4, ptr %10) #4
  call void @llvm.lifetime.start.p0(i64 4, ptr %11) #4
  call void @llvm.lifetime.start.p0(i64 8, ptr %12) #4
  %15 = load ptr, ptr %6, align 8, !tbaa !7
  %16 = call ptr @EVP_CIPHER_CTX_get_cipher_data(ptr noundef %15)
  store ptr %16, ptr %12, align 8, !tbaa !12
  call void @llvm.lifetime.start.p0(i64 4, ptr %13) #4
  %17 = load ptr, ptr %6, align 8, !tbaa !7
  %18 = call i32 @EVP_CIPHER_CTX_get_key_length(ptr noundef %17)
  %19 = mul nsw i32 %18, 8
  store i32 %19, ptr %13, align 4, !tbaa !3
  %20 = load i32, ptr %13, align 4, !tbaa !3
  %21 = icmp sle i32 %20, 0
  br i1 %21, label %22, label %23

22:                                               ; preds = %4
  call void @ERR_new()
  call void @ERR_set_debug(ptr noundef @.str, i32 noundef 152, ptr noundef @__func__.aesni_init_key)
  call void (i32, i32, ptr, ...) @ERR_set_error(i32 noundef 6, i32 noundef 130, ptr noundef null)
  store i32 0, ptr %5, align 4
  store i32 1, ptr %14, align 4
  br label %77

23:                                               ; preds = %4
  %24 = load ptr, ptr %6, align 8, !tbaa !7
  %25 = call ptr @EVP_CIPHER_CTX_get0_cipher(ptr noundef %24)
  %26 = call i32 @EVP_CIPHER_get_mode(ptr noundef %25)
  store i32 %26, ptr %11, align 4, !tbaa !3
  %27 = load i32, ptr %11, align 4, !tbaa !3
  %28 = icmp eq i32 %27, 1
  br i1 %28, label %32, label %29

29:                                               ; preds = %23
  %30 = load i32, ptr %11, align 4, !tbaa !3
  %31 = icmp eq i32 %30, 2
  br i1 %31, label %32, label %48

32:                                               ; preds = %29, %23
  %33 = load i32, ptr %9, align 4, !tbaa !3
  %34 = icmp ne i32 %33, 0
  br i1 %34, label %48, label %35

35:                                               ; preds = %32
  %36 = load ptr, ptr %7, align 8, !tbaa !10
  %37 = load i32, ptr %13, align 4, !tbaa !3
  %38 = load ptr, ptr %12, align 8, !tbaa !12
  %39 = getelementptr inbounds nuw %struct.EVP_AES_KEY, ptr %38, i32 0, i32 0
  %40 = call i32 @aesni_set_decrypt_key(ptr noundef %36, i32 noundef %37, ptr noundef %39)
  store i32 %40, ptr %10, align 4, !tbaa !3
  %41 = load ptr, ptr %12, align 8, !tbaa !12
  %42 = getelementptr inbounds nuw %struct.EVP_AES_KEY, ptr %41, i32 0, i32 1
  store ptr @aesni_decrypt, ptr %42, align 8, !tbaa !13
  %43 = load i32, ptr %11, align 4, !tbaa !3
  %44 = icmp eq i32 %43, 2
  %45 = select i1 %44, ptr @aesni_cbc_encrypt, ptr null
  %46 = load ptr, ptr %12, align 8, !tbaa !12
  %47 = getelementptr inbounds nuw %struct.EVP_AES_KEY, ptr %46, i32 0, i32 2
  store ptr %45, ptr %47, align 8, !tbaa !15
  br label %72

48:                                               ; preds = %32, %29
  %49 = load ptr, ptr %7, align 8, !tbaa !10
  %50 = load i32, ptr %13, align 4, !tbaa !3
  %51 = load ptr, ptr %12, align 8, !tbaa !12
  %52 = getelementptr inbounds nuw %struct.EVP_AES_KEY, ptr %51, i32 0, i32 0
  %53 = call i32 @aesni_set_encrypt_key(ptr noundef %49, i32 noundef %50, ptr noundef %52)
  store i32 %53, ptr %10, align 4, !tbaa !3
  %54 = load ptr, ptr %12, align 8, !tbaa !12
  %55 = getelementptr inbounds nuw %struct.EVP_AES_KEY, ptr %54, i32 0, i32 1
  store ptr @aesni_encrypt, ptr %55, align 8, !tbaa !13
  %56 = load i32, ptr %11, align 4, !tbaa !3
  %57 = icmp eq i32 %56, 2
  br i1 %57, label %58, label %61

58:                                               ; preds = %48
  %59 = load ptr, ptr %12, align 8, !tbaa !12
  %60 = getelementptr inbounds nuw %struct.EVP_AES_KEY, ptr %59, i32 0, i32 2
  store ptr @aesni_cbc_encrypt, ptr %60, align 8, !tbaa !15
  br label %71

61:                                               ; preds = %48
  %62 = load i32, ptr %11, align 4, !tbaa !3
  %63 = icmp eq i32 %62, 5
  br i1 %63, label %64, label %67

64:                                               ; preds = %61
  %65 = load ptr, ptr %12, align 8, !tbaa !12
  %66 = getelementptr inbounds nuw %struct.EVP_AES_KEY, ptr %65, i32 0, i32 2
  store ptr @aesni_ctr32_encrypt_blocks, ptr %66, align 8, !tbaa !15
  br label %70

67:                                               ; preds = %61
  %68 = load ptr, ptr %12, align 8, !tbaa !12
  %69 = getelementptr inbounds nuw %struct.EVP_AES_KEY, ptr %68, i32 0, i32 2
  store ptr null, ptr %69, align 8, !tbaa !15
  br label %70

70:                                               ; preds = %67, %64
  br label %71

71:                                               ; preds = %70, %58
  br label %72

72:                                               ; preds = %71, %35
  %73 = load i32, ptr %10, align 4, !tbaa !3
  %74 = icmp slt i32 %73, 0
  br i1 %74, label %75, label %76

75:                                               ; preds = %72
  call void @ERR_new()
  call void @ERR_set_debug(ptr noundef @.str, i32 noundef 174, ptr noundef @__func__.aesni_init_key)
  call void (i32, i32, ptr, ...) @ERR_set_error(i32 noundef 6, i32 noundef 143, ptr noundef null)
  store i32 0, ptr %5, align 4
  store i32 1, ptr %14, align 4
  br label %77

76:                                               ; preds = %72
  store i32 1, ptr %5, align 4
  store i32 1, ptr %14, align 4
  br label %77

77:                                               ; preds = %76, %75, %22
  call void @llvm.lifetime.end.p0(i64 4, ptr %13) #4
  call void @llvm.lifetime.end.p0(i64 8, ptr %12) #4
  call void @llvm.lifetime.end.p0(i64 4, ptr %11) #4
  call void @llvm.lifetime.end.p0(i64 4, ptr %10) #4
  %78 = load i32, ptr %5, align 4
  ret i32 %78
}