; Function Attrs: nounwind uwtable
define internal range(i32 0, 2) i32 @aesni_init_key(ptr noundef %0, ptr noundef %1, ptr readnone captures(none) %2, i32 noundef %3) #2 {
  %5 = tail call ptr @EVP_CIPHER_CTX_get_cipher_data(ptr noundef %0) #8
  %6 = tail call i32 @EVP_CIPHER_CTX_get_key_length(ptr noundef %0) #8
  %7 = shl nsw i32 %6, 3
  %8 = icmp slt i32 %6, 1
  br i1 %8, label %.sink.split, label %9

9:                                                ; preds = %4
  %10 = tail call ptr @EVP_CIPHER_CTX_get0_cipher(ptr noundef %0) #8
  %11 = tail call i32 @EVP_CIPHER_get_mode(ptr noundef %10) #8
  %12 = icmp eq i32 %11, 2
  %13 = add i32 %11, -3
  %or.cond = icmp ult i32 %13, -2
  %14 = icmp ne i32 %3, 0
  %or.cond3 = or i1 %14, %or.cond
  %15 = getelementptr inbounds nuw i8, ptr %5, i64 248
  br i1 %or.cond3, label %20, label %16

16:                                               ; preds = %9
  %17 = tail call i32 @aesni_set_decrypt_key(ptr noundef %1, i32 noundef %7, ptr noundef %5) #8
  store ptr @aesni_decrypt, ptr %15, align 8, !tbaa !7
  %18 = select i1 %12, ptr @aesni_cbc_encrypt, ptr null
  %19 = getelementptr inbounds nuw i8, ptr %5, i64 256
  store ptr %18, ptr %19, align 8, !tbaa !10
  br label %29

20:                                               ; preds = %9
  %21 = tail call i32 @aesni_set_encrypt_key(ptr noundef %1, i32 noundef %7, ptr noundef %5) #8
  store ptr @aesni_encrypt, ptr %15, align 8, !tbaa !7
  br i1 %12, label %22, label %24

22:                                               ; preds = %20
  %23 = getelementptr inbounds nuw i8, ptr %5, i64 256
  store ptr @aesni_cbc_encrypt, ptr %23, align 8, !tbaa !10
  br label %29

24:                                               ; preds = %20
  %25 = icmp eq i32 %11, 5
  %26 = getelementptr inbounds nuw i8, ptr %5, i64 256
  br i1 %25, label %27, label %28

27:                                               ; preds = %24
  store ptr @aesni_ctr32_encrypt_blocks, ptr %26, align 8, !tbaa !10
  br label %29

28:                                               ; preds = %24
  store ptr null, ptr %26, align 8, !tbaa !10
  br label %29

29:                                               ; preds = %22, %28, %27, %16
  %.026 = phi i32 [ %21, %22 ], [ %21, %27 ], [ %21, %28 ], [ %17, %16 ]
  %30 = icmp slt i32 %.026, 0
  br i1 %30, label %.sink.split, label %31

.sink.split:                                      ; preds = %29, %4
  %.sink29 = phi i32 [ 152, %4 ], [ 174, %29 ]
  %.sink = phi i32 [ 130, %4 ], [ 143, %29 ]
  tail call void @ERR_new() #8
  tail call void @ERR_set_debug(ptr noundef nonnull @.str, i32 noundef %.sink29, ptr noundef nonnull @__func__.aesni_init_key) #8
  tail call void (i32, i32, ptr, ...) @ERR_set_error(i32 noundef 6, i32 noundef %.sink, ptr noundef null) #8
  br label %31

31:                                               ; preds = %.sink.split, %29
  %.0 = phi i32 [ 1, %29 ], [ 0, %.sink.split ]
  ret i32 %.0
}